; Function Attrs: nounwind uwtable
define dso_local void @luaL_unref(ptr noundef %0, i32 noundef %1, i32 noundef %2) local_unnamed_addr #0 {
  %4 = icmp sgt i32 %2, -1
  br i1 %4, label %5, label %14

5:                                                ; preds = %3
  %6 = add i32 %1, -1
  %or.cond = icmp ult i32 %6, -10000
  br i1 %or.cond, label %11, label %7

7:                                                ; preds = %5
  %8 = tail call i32 @lua_gettop(ptr noundef %0) #17
  %9 = add nsw i32 %1, 1
  %10 = add i32 %9, %8
  br label %11

11:                                               ; preds = %5, %7
  %12 = phi i32 [ %10, %7 ], [ %1, %5 ]
  tail call void @lua_rawgeti(ptr noundef %0, i32 noundef %12, i32 noundef 0) #17
  tail call void @lua_rawseti(ptr noundef %0, i32 noundef %12, i32 noundef %2) #17
  %13 = zext nneg i32 %2 to i64
  tail call void @lua_pushinteger(ptr noundef %0, i64 noundef %13) #17
  tail call void @lua_rawseti(ptr noundef %0, i32 noundef %12, i32 noundef 0) #17
  br label %14

14:                                               ; preds = %11, %3
  ret void
}